target datalayout = "e-m:e-p270:32:32-p271:32:32-p272:64:64-i64:64-i128:128-f80:128-n8:16:32:64-S128"
target triple = "x86_64-pc-linux-gnu"

; Function Attrs: mustprogress nounwind uwtable
define hidden noundef zeroext i1 @_Z2ltjPjS_(i32 noundef %0, ptr noundef %1, ptr noundef %2) #4 {
  %4 = alloca i1, align 1
  %5 = alloca i32, align 4
  %6 = alloca ptr, align 8
  %7 = alloca ptr, align 8
  %8 = alloca i32, align 4
  %9 = alloca i32, align 4
  store i32 %0, ptr %5, align 4, !tbaa !3
  store ptr %1, ptr %6, align 8, !tbaa !7
  store ptr %2, ptr %7, align 8, !tbaa !7
  call void @llvm.lifetime.start.p0(i64 4, ptr %8) #3
  %10 = load i32, ptr %5, align 4, !tbaa !3
  store i32 %10, ptr %8, align 4, !tbaa !3
  br label %11

11:                                               ; preds = %42, %3
  %12 = load i32, ptr %8, align 4, !tbaa !3
  %13 = icmp ugt i32 %12, 0
  br i1 %13, label %14, label %43

14:                                               ; preds = %11
  %15 = load i32, ptr %8, align 4, !tbaa !3
  %16 = add i32 %15, -1
  store i32 %16, ptr %8, align 4, !tbaa !3
  %17 = load ptr, ptr %6, align 8, !tbaa !7
  %18 = load i32, ptr %8, align 4, !tbaa !3
  %19 = zext i32 %18 to i64
  %20 = getelementptr inbounds nuw i32, ptr %17, i64 %19
  %21 = load i32, ptr %20, align 4, !tbaa !3
  %22 = load ptr, ptr %7, align 8, !tbaa !7
  %23 = load i32, ptr %8, align 4, !tbaa !3
  %24 = zext i32 %23 to i64
  %25 = getelementptr inbounds nuw i32, ptr %22, i64 %24
  %26 = load i32, ptr %25, align 4, !tbaa !3
  %27 = icmp ult i32 %21, %26
  br i1 %27, label %28, label %29

28:                                               ; preds = %14
  store i1 true, ptr %4, align 1
  store i32 1, ptr %9, align 4
  br label %44

29:                                               ; preds = %14
  %30 = load ptr, ptr %6, align 8, !tbaa !7
  %31 = load i32, ptr %8, align 4, !tbaa !3
  %32 = zext i32 %31 to i64
  %33 = getelementptr inbounds nuw i32, ptr %30, i64 %32
  %34 = load i32, ptr %33, align 4, !tbaa !3
  %35 = load ptr, ptr %7, align 8, !tbaa !7
  %36 = load i32, ptr %8, align 4, !tbaa !3
  %37 = zext i32 %36 to i64
  %38 = getelementptr inbounds nuw i32, ptr %35, i64 %37
  %39 = load i32, ptr %38, align 4, !tbaa !3
  %40 = icmp ugt i32 %34, %39
  br i1 %40, label %41, label %42

41:                                               ; preds = %29
  store i1 false, ptr %4, align 1
  store i32 1, ptr %9, align 4
  br label %44

42:                                               ; preds = %29
  br label %11, !llvm.loop !35

43:                                               ; preds = %11
  store i1 false, ptr %4, align 1
  store i32 1, ptr %9, align 4
  br label %44

44:                                               ; preds = %43, %41, %28
  call void @llvm.lifetime.end.p0(i64 4, ptr %8) #3
  %45 = load i1, ptr %4, align 1
  ret i1 %45
}