; Function Attrs: mustprogress nofree norecurse nosync nounwind willreturn memory(argmem: read) uwtable
define hidden noundef zeroext i1 @_Z2ltjPjS_(i32 noundef %0, ptr noundef readonly captures(none) %1, ptr noundef readonly captures(none) %2) local_unnamed_addr #5 {
  %4 = zext i32 %0 to i64
  br label %5

5:                                                ; preds = %13, %3
  %indvars.iv = phi i64 [ %7, %13 ], [ %4, %3 ]
  %.not = icmp eq i64 %indvars.iv, 0
  br i1 %.not, label %15, label %6

6:                                                ; preds = %5
  %7 = add nsw i64 %indvars.iv, -1
  %8 = getelementptr inbounds nuw i32, ptr %1, i64 %7
  %9 = load i32, ptr %8, align 4, !tbaa !3
  %10 = getelementptr inbounds nuw i32, ptr %2, i64 %7
  %11 = load i32, ptr %10, align 4, !tbaa !3
  %12 = icmp ult i32 %9, %11
  br i1 %12, label %15, label %13

13:                                               ; preds = %6
  %14 = icmp ugt i32 %9, %11
  br i1 %14, label %15, label %5, !llvm.loop !25

15:                                               ; preds = %5, %13, %6
  %.011 = phi i1 [ true, %6 ], [ false, %13 ], [ false, %5 ]
  ret i1 %.011
}